target datalayout = "e-m:e-p270:32:32-p271:32:32-p272:64:64-i64:64-i128:128-f80:128-n8:16:32:64-S128"
target triple = "x86_64-pc-linux-gnu"

%struct.H5FD_splitter_fapl_t = type { i64, i64, [4097 x i8], [4097 x i8], i8 }
%struct.H5FD_splitter_t = type { %struct.H5FD_t, i32, %struct.H5FD_splitter_fapl_t, ptr, ptr, ptr }
%struct.H5FD_t = type { i64, ptr, i64, i32, i64, i64, i64, i64, i64, i8 }

@H5FD_init_g = external global i8, align 1
@H5_libterm_g = external global i8, align 1
@.str = private unnamed_addr constant [106 x i8] c"generated/home/dtcxzyw/WorkSpace/Projects/compilers/llvm-opt-benchmark/bench/hdf5/hdf5/src/H5FDsplitter.c\00", align 1
@H5E_VFL_g = external global i64, align 8
@__func__.H5FD__splitter_ctl = private unnamed_addr constant [19 x i8] c"H5FD__splitter_ctl\00", align 1
@H5E_FCNTL_g = external global i64, align 8
@.str.72 = private unnamed_addr constant [23 x i8] c"VFD ctl request failed\00", align 1
@.str.73 = private unnamed_addr constant [73 x i8] c"VFD ctl request failed (unknown op code and fail if unknown flag is set)\00", align 1

; Function Attrs: nounwind uwtable
define internal i32 @H5FD__splitter_ctl(ptr noundef %0, i64 noundef %1, i64 noundef %2, ptr noundef %3, ptr noundef %4) #0 {
  %6 = alloca ptr, align 8
  %7 = alloca i64, align 8
  %8 = alloca i64, align 8
  %9 = alloca ptr, align 8
  %10 = alloca ptr, align 8
  %11 = alloca ptr, align 8
  %12 = alloca i32, align 4
  %13 = alloca i8, align 1
  store ptr %0, ptr %6, align 8, !tbaa !38
  store i64 %1, ptr %7, align 8, !tbaa !11
  store i64 %2, ptr %8, align 8, !tbaa !11
  store ptr %3, ptr %9, align 8, !tbaa !47
  store ptr %4, ptr %10, align 8, !tbaa !47
  call void @llvm.lifetime.start.p0(i64 8, ptr %11) #10
  %14 = load ptr, ptr %6, align 8, !tbaa !38
  store ptr %14, ptr %11, align 8, !tbaa !40
  call void @llvm.lifetime.start.p0(i64 4, ptr %12) #10
  store i32 0, ptr %12, align 4, !tbaa !3
  call void @llvm.lifetime.start.p0(i64 1, ptr %13) #10
  store i8 0, ptr %13, align 1, !tbaa !7
  %15 = load i8, ptr @H5FD_init_g, align 1, !tbaa !7, !range !9, !noundef !10
  %16 = trunc i8 %15 to i1
  br i1 %16, label %21, label %17

17:                                               ; preds = %5
  %18 = load i8, ptr @H5_libterm_g, align 1, !tbaa !7, !range !9, !noundef !10
  %19 = trunc i8 %18 to i1
  %20 = xor i1 %19, true
  br label %21

21:                                               ; preds = %17, %5
  %22 = phi i1 [ true, %5 ], [ %20, %17 ]
  %23 = xor i1 %22, true
  %24 = xor i1 %23, true
  %25 = zext i1 %24 to i32
  %26 = sext i32 %25 to i64
  %27 = call i64 @llvm.expect.i64(i64 %26, i64 1)
  %28 = icmp ne i64 %27, 0
  br i1 %28, label %29, label %92

29:                                               ; preds = %21
  %30 = load i64, ptr %7, align 8, !tbaa !11
  switch i64 %30, label %31 [
  ]

31:                                               ; preds = %29
  %32 = load i64, ptr %8, align 8, !tbaa !11
  %33 = and i64 %32, 2
  %34 = icmp ne i64 %33, 0
  br i1 %34, label %35, label %65

35:                                               ; preds = %31
  %36 = load ptr, ptr %11, align 8, !tbaa !40
  %37 = getelementptr inbounds nuw %struct.H5FD_splitter_t, ptr %36, i32 0, i32 3
  %38 = load ptr, ptr %37, align 8, !tbaa !42
  %39 = load i64, ptr %7, align 8, !tbaa !11
  %40 = load i64, ptr %8, align 8, !tbaa !11
  %41 = load ptr, ptr %9, align 8, !tbaa !47
  %42 = load ptr, ptr %10, align 8, !tbaa !47
  %43 = call i32 @H5FDctl(ptr noundef %38, i64 noundef %39, i64 noundef %40, ptr noundef %41, ptr noundef %42)
  %44 = icmp slt i32 %43, 0
  br i1 %44, label %45, label %64

45:                                               ; preds = %35
  br label %46

46:                                               ; preds = %45
  br label %47

47:                                               ; preds = %46
  br label %48

48:                                               ; preds = %47
  %49 = load i64, ptr @H5E_VFL_g, align 8, !tbaa !11
  %50 = load i64, ptr @H5E_FCNTL_g, align 8, !tbaa !11
  %51 = call i32 (ptr, ptr, i32, i64, i64, ptr, ...) @H5E_printf_stack(ptr noundef @.str, ptr noundef @__func__.H5FD__splitter_ctl, i32 noundef 1304, i64 noundef %49, i64 noundef %50, ptr noundef @.str.72)
  br label %52

52:                                               ; preds = %48
  br label %53

53:                                               ; preds = %52
  store i8 1, ptr %13, align 1, !tbaa !7
  %54 = load i8, ptr %13, align 1, !tbaa !7, !range !9, !noundef !10
  %55 = trunc i8 %54 to i1
  %56 = zext i1 %55 to i8
  store i8 %56, ptr %13, align 1, !tbaa !7
  br label %57

57:                                               ; preds = %53
  br label %58

58:                                               ; preds = %57
  br label %59

59:                                               ; preds = %58
  store i32 -1, ptr %12, align 4, !tbaa !3
  br label %91

60:                                               ; No predecessors!
  br label %61

61:                                               ; preds = %60
  br label %62

62:                                               ; preds = %61
  br label %63

63:                                               ; preds = %62
  br label %64

64:                                               ; preds = %63, %35
  br label %89

65:                                               ; preds = %31
  %66 = load i64, ptr %8, align 8, !tbaa !11
  %67 = and i64 %66, 1
  %68 = icmp ne i64 %67, 0
  br i1 %68, label %69, label %88

69:                                               ; preds = %65
  br label %70

70:                                               ; preds = %69
  br label %71

71:                                               ; preds = %70
  br label %72

72:                                               ; preds = %71
  %73 = load i64, ptr @H5E_VFL_g, align 8, !tbaa !11
  %74 = load i64, ptr @H5E_FCNTL_g, align 8, !tbaa !11
  %75 = call i32 (ptr, ptr, i32, i64, i64, ptr, ...) @H5E_printf_stack(ptr noundef @.str, ptr noundef @__func__.H5FD__splitter_ctl, i32 noundef 1312, i64 noundef %73, i64 noundef %74, ptr noundef @.str.73)
  br label %76

76:                                               ; preds = %72
  br label %77

77:                                               ; preds = %76
  store i8 1, ptr %13, align 1, !tbaa !7
  %78 = load i8, ptr %13, align 1, !tbaa !7, !range !9, !noundef !10
  %79 = trunc i8 %78 to i1
  %80 = zext i1 %79 to i8
  store i8 %80, ptr %13, align 1, !tbaa !7
  br label %81

81:                                               ; preds = %77
  br label %82

82:                                               ; preds = %81
  br label %83

83:                                               ; preds = %82
  store i32 -1, ptr %12, align 4, !tbaa !3
  br label %91

84:                                               ; No predecessors!
  br label %85

85:                                               ; preds = %84
  br label %86

86:                                               ; preds = %85
  br label %87

87:                                               ; preds = %86
  br label %88

88:                                               ; preds = %87, %65
  br label %89

89:                                               ; preds = %88, %64
  br label %90

90:                                               ; preds = %89
  br label %91

91:                                               ; preds = %90, %83, %59
  br label %92

92:                                               ; preds = %91, %21
  %93 = load i32, ptr %12, align 4, !tbaa !3
  call void @llvm.lifetime.end.p0(i64 1, ptr %13) #10
  call void @llvm.lifetime.end.p0(i64 4, ptr %12) #10
  call void @llvm.lifetime.end.p0(i64 8, ptr %11) #10
  ret i32 %93
}