; Function Attrs: nounwind uwtable
define internal range(i32 -1, 1) i32 @H5FD__splitter_ctl(ptr noundef readonly captures(none) %0, i64 noundef %1, i64 noundef %2, ptr noundef %3, ptr noundef %4) #0 {
  %6 = load i8, ptr @H5FD_init_g, align 1, !tbaa !3, !range !7, !noundef !8
  %7 = trunc nuw i8 %6 to i1
  %8 = load i8, ptr @H5_libterm_g, align 1, !range !7
  %9 = trunc nuw i8 %8 to i1
  %10 = xor i1 %9, true
  %11 = select i1 %7, i1 true, i1 %10
  br i1 %11, label %12, label %29, !prof !9

12:                                               ; preds = %5
  %13 = and i64 %2, 2
  %.not = icmp eq i64 %13, 0
  br i1 %.not, label %23, label %14

14:                                               ; preds = %12
  %15 = getelementptr inbounds nuw i8, ptr %0, i64 8304
  %16 = load ptr, ptr %15, align 8, !tbaa !33
  %17 = tail call i32 @H5FDctl(ptr noundef %16, i64 noundef %1, i64 noundef %2, ptr noundef %3, ptr noundef %4) #12
  %18 = icmp slt i32 %17, 0
  br i1 %18, label %19, label %29

19:                                               ; preds = %14
  %20 = load i64, ptr @H5E_VFL_g, align 8, !tbaa !10
  %21 = load i64, ptr @H5E_FCNTL_g, align 8, !tbaa !10
  %22 = tail call i32 (ptr, ptr, i32, i64, i64, ptr, ...) @H5E_printf_stack(ptr noundef nonnull @.str, ptr noundef nonnull @__func__.H5FD__splitter_ctl, i32 noundef 1304, i64 noundef %20, i64 noundef %21, ptr noundef nonnull @.str.72) #12
  br label %29

23:                                               ; preds = %12
  %24 = and i64 %2, 1
  %.not10 = icmp eq i64 %24, 0
  br i1 %.not10, label %29, label %25

25:                                               ; preds = %23
  %26 = load i64, ptr @H5E_VFL_g, align 8, !tbaa !10
  %27 = load i64, ptr @H5E_FCNTL_g, align 8, !tbaa !10
  %28 = tail call i32 (ptr, ptr, i32, i64, i64, ptr, ...) @H5E_printf_stack(ptr noundef nonnull @.str, ptr noundef nonnull @__func__.H5FD__splitter_ctl, i32 noundef 1312, i64 noundef %26, i64 noundef %27, ptr noundef nonnull @.str.73) #12
  br label %29

29:                                               ; preds = %19, %25, %14, %23, %5
  %.0 = phi i32 [ -1, %19 ], [ 0, %14 ], [ -1, %25 ], [ 0, %23 ], [ 0, %5 ]
  ret i32 %.0
}